; Function Attrs: mustprogress uwtable
define dso_local void @_ZN12cmWorkerPoolC2Ev(ptr noundef nonnull align 8 dereferenceable(24) %0) unnamed_addr #0 align 2 personality ptr @__gxx_personality_v0 {
  store ptr null, ptr %0, align 8
  %2 = getelementptr inbounds i8, ptr %0, i64 8
  store i32 1, ptr %2, align 8
  tail call void @llvm.experimental.noalias.scope.decl(metadata !86)
  %3 = tail call noalias noundef nonnull dereferenceable(304) ptr @_Znwm(i64 noundef 304) #22, !noalias !86
  invoke void @_ZN20cmWorkerPoolInternalC2EP12cmWorkerPool(ptr noundef nonnull align 8 dereferenceable(304) %3, ptr noundef nonnull %0)
          to label %_ZSt11make_uniqueI20cmWorkerPoolInternalJP12cmWorkerPoolEENSt8__detail9_MakeUniqIT_E15__single_objectEDpOT0_.exit unwind label %4, !noalias !86

4:                                                ; preds = %1
  %5 = landingpad { ptr, i32 }
          cleanup
  tail call void @_ZdlPv(ptr noundef nonnull %3) #23, !noalias !86
  resume { ptr, i32 } %5

_ZSt11make_uniqueI20cmWorkerPoolInternalJP12cmWorkerPoolEENSt8__detail9_MakeUniqIT_E15__single_objectEDpOT0_.exit: ; preds = %1
  %6 = getelementptr inbounds i8, ptr %0, i64 16
  store ptr %3, ptr %6, align 8, !alias.scope !86
  ret void
}